target datalayout = "e-m:e-p270:32:32-p271:32:32-p272:64:64-i64:64-i128:128-f80:128-n8:16:32:64-S128"
target triple = "x86_64-pc-linux-gnu"

%"class.std::__cxx11::basic_string" = type { %"struct.std::__cxx11::basic_string<char>::_Alloc_hider", i64, %union.anon }
%"struct.std::__cxx11::basic_string<char>::_Alloc_hider" = type { ptr }
%union.anon = type { i64, [8 x i8] }
%class.V3Number = type { %class.V3NumberData, ptr, ptr }
%class.V3NumberData = type <{ %union.anon.0, i32, i8, i8, [2 x i8] }>
%union.anon.0 = type { %"class.std::__cxx11::basic_string" }
%class.V3ErrorCode = type { i8 }

@.str.15 = private unnamed_addr constant [114 x i8] c"generated/home/dtcxzyw/WorkSpace/Projects/compilers/llvm-opt-benchmark/bench/verilator/verilator/src/V3Number.cpp\00", align 1
@.str.51 = private unnamed_addr constant [50 x i8] c"Number operation called with same source and dest\00", align 1
@.str.52 = private unnamed_addr constant [70 x i8] c"Number operation called with non-logic (double or string) argument: '\00", align 1

; Function Attrs: mustprogress nounwind uwtable
define linkonce_odr dso_local noundef i32 @_ZNK12V3NumberData5widthEv(ptr noundef nonnull align 8 dereferenceable(40) %0) #7 comdat align 2 {
  %2 = alloca ptr, align 8
  store ptr %0, ptr %2, align 8, !tbaa !42
  %3 = load ptr, ptr %2, align 8
  %4 = getelementptr inbounds nuw %class.V3NumberData, ptr %3, i32 0, i32 1
  %5 = load i32, ptr %4, align 8, !tbaa !44
  ret i32 %5
}

; Function Attrs: mustprogress nounwind uwtable
define linkonce_odr dso_local noundef zeroext i8 @_ZNK12V3NumberData4typeEv(ptr noundef nonnull align 8 dereferenceable(40) %0) #7 comdat align 2 {
  %2 = alloca ptr, align 8
  store ptr %0, ptr %2, align 8, !tbaa !42
  %3 = load ptr, ptr %2, align 8
  %4 = getelementptr inbounds nuw %class.V3NumberData, ptr %3, i32 0, i32 2
  %5 = load i8, ptr %4, align 4, !tbaa !45
  ret i8 %5
}

; Function Attrs: mustprogress nounwind uwtable
define linkonce_odr dso_local noundef i32 @_ZNK8V3Number5widthEv(ptr noundef nonnull align 8 dereferenceable(56) %0) #7 comdat align 2 {
  %2 = alloca ptr, align 8
  store ptr %0, ptr %2, align 8, !tbaa !4
  %3 = load ptr, ptr %2, align 8
  %4 = getelementptr inbounds nuw %class.V3Number, ptr %3, i32 0, i32 0
  %5 = call noundef i32 @_ZNK12V3NumberData5widthEv(ptr noundef nonnull align 8 dereferenceable(40) %4)
  ret i32 %5
}

; Function Attrs: mustprogress nounwind uwtable
define linkonce_odr dso_local noundef zeroext i8 @_ZNK8V3Number8dataTypeEv(ptr noundef nonnull align 8 dereferenceable(56) %0) #7 comdat align 2 {
  %2 = alloca ptr, align 8
  store ptr %0, ptr %2, align 8, !tbaa !4
  %3 = load ptr, ptr %2, align 8
  %4 = getelementptr inbounds nuw %class.V3Number, ptr %3, i32 0, i32 0
  %5 = call noundef zeroext i8 @_ZNK12V3NumberData4typeEv(ptr noundef nonnull align 8 dereferenceable(40) %4)
  ret i8 %5
}

; Function Attrs: mustprogress nounwind uwtable
define linkonce_odr dso_local void @_ZN11V3ErrorCodeC2ENS_2enE(ptr noundef nonnull align 1 dereferenceable(1) %0, i8 noundef zeroext %1) unnamed_addr #7 comdat align 2 {
  %3 = alloca ptr, align 8
  %4 = alloca i8, align 1
  store ptr %0, ptr %3, align 8, !tbaa !123
  store i8 %1, ptr %4, align 1, !tbaa !125
  %5 = load ptr, ptr %3, align 8
  %6 = getelementptr inbounds nuw %class.V3ErrorCode, ptr %5, i32 0, i32 0
  %7 = load i8, ptr %4, align 1, !tbaa !125
  store i8 %7, ptr %6, align 1, !tbaa !127
  ret void
}

; Function Attrs: mustprogress uwtable
define dso_local noundef nonnull align 8 dereferenceable(56) ptr @_ZN8V3Number5opDivERKS_S1_(ptr noundef nonnull align 8 dereferenceable(56) %0, ptr noundef nonnull align 8 dereferenceable(56) %1, ptr noundef nonnull align 8 dereferenceable(56) %2) #4 align 2 {
  %4 = alloca ptr, align 8
  %5 = alloca ptr, align 8
  %6 = alloca ptr, align 8
  %7 = alloca ptr, align 8
  %8 = alloca %class.V3ErrorCode, align 1
  %9 = alloca %class.V3ErrorCode, align 1
  %10 = alloca %class.V3ErrorCode, align 1
  store ptr %0, ptr %5, align 8, !tbaa !4
  store ptr %1, ptr %6, align 8, !tbaa !4
  store ptr %2, ptr %7, align 8, !tbaa !4
  %11 = load ptr, ptr %5, align 8
  br label %12

12:                                               ; preds = %3
  %13 = load ptr, ptr %6, align 8, !tbaa !4
  %14 = icmp ne ptr %11, %13
  br i1 %14, label %15, label %18

15:                                               ; preds = %12
  %16 = load ptr, ptr %7, align 8, !tbaa !4
  %17 = icmp ne ptr %11, %16
  br label %18

18:                                               ; preds = %15, %12
  %19 = phi i1 [ false, %12 ], [ %17, %15 ]
  %20 = xor i1 %19, true
  %21 = xor i1 %20, true
  %22 = xor i1 %21, true
  %23 = zext i1 %22 to i64
  %24 = call i64 @llvm.expect.i64(i64 %23, i64 0)
  %25 = icmp ne i64 %24, 0
  br i1 %25, label %26, label %32

26:                                               ; preds = %18
  call void @_ZN11V3ErrorCodeC2ENS_2enE(ptr noundef nonnull align 1 dereferenceable(1) %8, i8 noundef zeroext 4)
  %27 = getelementptr inbounds nuw %class.V3ErrorCode, ptr %8, i32 0, i32 0
  %28 = load i8, ptr %27, align 1
  %29 = call noundef nonnull align 8 dereferenceable(112) ptr @_ZN7V3Error19v3errorPrepFileLineB5cxx11E11V3ErrorCodePKci(i8 %28, ptr noundef @.str.15, i32 noundef 1963)
  %30 = call noundef nonnull align 8 dereferenceable(112) ptr @_ZN7V3Error10v3errorStrB5cxx11Ev()
  %31 = call noundef nonnull align 8 dereferenceable(8) ptr @_ZStlsISt11char_traitsIcEERSt13basic_ostreamIcT_ES5_PKc(ptr noundef nonnull align 8 dereferenceable(8) %30, ptr noundef @.str.51)
  call void @_ZNK8V3Number15v3errorEndFatalERKNSt7__cxx1119basic_ostringstreamIcSt11char_traitsIcESaIcEEE(ptr noundef nonnull align 8 dereferenceable(56) %11, ptr noundef nonnull align 8 dereferenceable(112) %31) #25
  unreachable

32:                                               ; preds = %18
  br label %33

33:                                               ; preds = %32
  br label %34

34:                                               ; preds = %33
  %35 = load ptr, ptr %6, align 8, !tbaa !4
  %36 = call noundef zeroext i8 @_ZNK8V3Number8dataTypeEv(ptr noundef nonnull align 8 dereferenceable(56) %35)
  %37 = icmp eq i8 %36, 1
  %38 = xor i1 %37, true
  %39 = xor i1 %38, true
  %40 = xor i1 %39, true
  %41 = zext i1 %40 to i64
  %42 = call i64 @llvm.expect.i64(i64 %41, i64 0)
  %43 = icmp ne i64 %42, 0
  br i1 %43, label %44, label %53

44:                                               ; preds = %34
  call void @_ZN11V3ErrorCodeC2ENS_2enE(ptr noundef nonnull align 1 dereferenceable(1) %9, i8 noundef zeroext 4)
  %45 = getelementptr inbounds nuw %class.V3ErrorCode, ptr %9, i32 0, i32 0
  %46 = load i8, ptr %45, align 1
  %47 = call noundef nonnull align 8 dereferenceable(112) ptr @_ZN7V3Error19v3errorPrepFileLineB5cxx11E11V3ErrorCodePKci(i8 %46, ptr noundef @.str.15, i32 noundef 1964)
  %48 = call noundef nonnull align 8 dereferenceable(112) ptr @_ZN7V3Error10v3errorStrB5cxx11Ev()
  %49 = call noundef nonnull align 8 dereferenceable(8) ptr @_ZStlsISt11char_traitsIcEERSt13basic_ostreamIcT_ES5_PKc(ptr noundef nonnull align 8 dereferenceable(8) %48, ptr noundef @.str.52)
  %50 = load ptr, ptr %6, align 8, !tbaa !4
  %51 = call noundef nonnull align 8 dereferenceable(8) ptr @_ZlsRSoRK8V3Number(ptr noundef nonnull align 8 dereferenceable(8) %49, ptr noundef nonnull align 8 dereferenceable(56) %50)
  %52 = call noundef nonnull align 8 dereferenceable(8) ptr @_ZStlsISt11char_traitsIcEERSt13basic_ostreamIcT_ES5_c(ptr noundef nonnull align 8 dereferenceable(8) %51, i8 noundef signext 34)
  call void @_ZNK8V3Number15v3errorEndFatalERKNSt7__cxx1119basic_ostringstreamIcSt11char_traitsIcESaIcEEE(ptr noundef nonnull align 8 dereferenceable(56) %11, ptr noundef nonnull align 8 dereferenceable(112) %52) #25
  unreachable

53:                                               ; preds = %34
  br label %54

54:                                               ; preds = %53
  br label %55

55:                                               ; preds = %54
  %56 = load ptr, ptr %7, align 8, !tbaa !4
  %57 = call noundef zeroext i8 @_ZNK8V3Number8dataTypeEv(ptr noundef nonnull align 8 dereferenceable(56) %56)
  %58 = icmp eq i8 %57, 1
  %59 = xor i1 %58, true
  %60 = xor i1 %59, true
  %61 = xor i1 %60, true
  %62 = zext i1 %61 to i64
  %63 = call i64 @llvm.expect.i64(i64 %62, i64 0)
  %64 = icmp ne i64 %63, 0
  br i1 %64, label %65, label %74

65:                                               ; preds = %55
  call void @_ZN11V3ErrorCodeC2ENS_2enE(ptr noundef nonnull align 1 dereferenceable(1) %10, i8 noundef zeroext 4)
  %66 = getelementptr inbounds nuw %class.V3ErrorCode, ptr %10, i32 0, i32 0
  %67 = load i8, ptr %66, align 1
  %68 = call noundef nonnull align 8 dereferenceable(112) ptr @_ZN7V3Error19v3errorPrepFileLineB5cxx11E11V3ErrorCodePKci(i8 %67, ptr noundef @.str.15, i32 noundef 1964)
  %69 = call noundef nonnull align 8 dereferenceable(112) ptr @_ZN7V3Error10v3errorStrB5cxx11Ev()
  %70 = call noundef nonnull align 8 dereferenceable(8) ptr @_ZStlsISt11char_traitsIcEERSt13basic_ostreamIcT_ES5_PKc(ptr noundef nonnull align 8 dereferenceable(8) %69, ptr noundef @.str.52)
  %71 = load ptr, ptr %7, align 8, !tbaa !4
  %72 = call noundef nonnull align 8 dereferenceable(8) ptr @_ZlsRSoRK8V3Number(ptr noundef nonnull align 8 dereferenceable(8) %70, ptr noundef nonnull align 8 dereferenceable(56) %71)
  %73 = call noundef nonnull align 8 dereferenceable(8) ptr @_ZStlsISt11char_traitsIcEERSt13basic_ostreamIcT_ES5_c(ptr noundef nonnull align 8 dereferenceable(8) %72, i8 noundef signext 34)
  call void @_ZNK8V3Number15v3errorEndFatalERKNSt7__cxx1119basic_ostringstreamIcSt11char_traitsIcESaIcEEE(ptr noundef nonnull align 8 dereferenceable(56) %11, ptr noundef nonnull align 8 dereferenceable(112) %73) #25
  unreachable

74:                                               ; preds = %55
  br label %75

75:                                               ; preds = %74
  %76 = load ptr, ptr %6, align 8, !tbaa !4
  %77 = call noundef zeroext i1 @_ZNK8V3Number11isFourStateEv(ptr noundef nonnull align 8 dereferenceable(56) %76)
  br i1 %77, label %81, label %78

78:                                               ; preds = %75
  %79 = load ptr, ptr %7, align 8, !tbaa !4
  %80 = call noundef zeroext i1 @_ZNK8V3Number11isFourStateEv(ptr noundef nonnull align 8 dereferenceable(56) %79)
  br i1 %80, label %81, label %83

81:                                               ; preds = %78, %75
  %82 = call noundef nonnull align 8 dereferenceable(56) ptr @_ZN8V3Number11setAllBitsXEv(ptr noundef nonnull align 8 dereferenceable(56) %11)
  store ptr %82, ptr %4, align 8
  br label %103

83:                                               ; preds = %78
  %84 = load ptr, ptr %7, align 8, !tbaa !4
  %85 = call noundef zeroext i1 @_ZNK8V3Number8isEqZeroEv(ptr noundef nonnull align 8 dereferenceable(56) %84)
  br i1 %85, label %86, label %88

86:                                               ; preds = %83
  %87 = call noundef nonnull align 8 dereferenceable(56) ptr @_ZN8V3Number18setAllBitsXRemovedEv(ptr noundef nonnull align 8 dereferenceable(56) %11)
  store ptr %87, ptr %4, align 8
  br label %103

88:                                               ; preds = %83
  %89 = load ptr, ptr %6, align 8, !tbaa !4
  %90 = call noundef i32 @_ZNK8V3Number5widthEv(ptr noundef nonnull align 8 dereferenceable(56) %89)
  %91 = icmp sle i32 %90, 64
  br i1 %91, label %92, label %99

92:                                               ; preds = %88
  %93 = load ptr, ptr %6, align 8, !tbaa !4
  %94 = call noundef i64 @_ZNK8V3Number7toUQuadEv(ptr noundef nonnull align 8 dereferenceable(56) %93)
  %95 = load ptr, ptr %7, align 8, !tbaa !4
  %96 = call noundef i64 @_ZNK8V3Number7toUQuadEv(ptr noundef nonnull align 8 dereferenceable(56) %95)
  %97 = udiv i64 %94, %96
  %98 = call noundef nonnull align 8 dereferenceable(56) ptr @_ZN8V3Number7setQuadEm(ptr noundef nonnull align 8 dereferenceable(56) %11, i64 noundef %97)
  store ptr %11, ptr %4, align 8
  br label %103

99:                                               ; preds = %88
  %100 = load ptr, ptr %6, align 8, !tbaa !4
  %101 = load ptr, ptr %7, align 8, !tbaa !4
  %102 = call noundef nonnull align 8 dereferenceable(56) ptr @_ZN8V3Number12opModDivGutsERKS_S1_b(ptr noundef nonnull align 8 dereferenceable(56) %11, ptr noundef nonnull align 8 dereferenceable(56) %100, ptr noundef nonnull align 8 dereferenceable(56) %101, i1 noundef zeroext false)
  store ptr %102, ptr %4, align 8
  br label %103

103:                                              ; preds = %99, %92, %86, %81
  %104 = load ptr, ptr %4, align 8
  ret ptr %104
}