; Function Attrs: mustprogress uwtable
define dso_local noundef nonnull align 8 dereferenceable(56) ptr @_ZN8V3Number5opDivERKS_S1_(ptr noundef nonnull returned align 8 dereferenceable(56) %0, ptr noundef nonnull align 8 dereferenceable(56) %1, ptr noundef nonnull align 8 dereferenceable(56) %2) local_unnamed_addr #3 align 2 {
  %4 = icmp eq ptr %0, %1
  %5 = icmp eq ptr %0, %2
  %.not17 = or i1 %4, %5
  br i1 %.not17, label %6, label %10, !prof !134

6:                                                ; preds = %3
  %7 = tail call noundef nonnull align 8 dereferenceable(112) ptr @_ZN7V3Error19v3errorPrepFileLineB5cxx11E11V3ErrorCodePKci(i8 4, ptr noundef nonnull @.str.15, i32 noundef 1963)
  %8 = tail call noundef nonnull align 8 dereferenceable(112) ptr @_ZN7V3Error10v3errorStrB5cxx11Ev()
  %9 = tail call noundef nonnull align 8 dereferenceable(8) ptr @_ZStlsISt11char_traitsIcEERSt13basic_ostreamIcT_ES5_PKc(ptr noundef nonnull align 8 dereferenceable(8) %8, ptr noundef nonnull @.str.51)
  tail call void @_ZNK8V3Number15v3errorEndFatalERKNSt7__cxx1119basic_ostringstreamIcSt11char_traitsIcESaIcEEE(ptr noundef nonnull align 8 dereferenceable(56) %0, ptr noundef nonnull align 8 dereferenceable(112) %9) #34
  unreachable

10:                                               ; preds = %3
  %11 = getelementptr inbounds nuw i8, ptr %1, i64 36
  %12 = load i8, ptr %11, align 4, !tbaa !40
  %.not = icmp eq i8 %12, 1
  br i1 %.not, label %19, label %13, !prof !41

13:                                               ; preds = %10
  %14 = tail call noundef nonnull align 8 dereferenceable(112) ptr @_ZN7V3Error19v3errorPrepFileLineB5cxx11E11V3ErrorCodePKci(i8 4, ptr noundef nonnull @.str.15, i32 noundef 1964)
  %15 = tail call noundef nonnull align 8 dereferenceable(112) ptr @_ZN7V3Error10v3errorStrB5cxx11Ev()
  %16 = tail call noundef nonnull align 8 dereferenceable(8) ptr @_ZStlsISt11char_traitsIcEERSt13basic_ostreamIcT_ES5_PKc(ptr noundef nonnull align 8 dereferenceable(8) %15, ptr noundef nonnull @.str.52)
  %17 = tail call noundef nonnull align 8 dereferenceable(8) ptr @_ZlsRSoRK8V3Number(ptr noundef nonnull align 8 dereferenceable(8) %16, ptr noundef nonnull align 8 dereferenceable(56) %1)
  %18 = tail call noundef nonnull align 8 dereferenceable(8) ptr @_ZStlsISt11char_traitsIcEERSt13basic_ostreamIcT_ES5_c(ptr noundef nonnull align 8 dereferenceable(8) %17, i8 noundef signext 34)
  tail call void @_ZNK8V3Number15v3errorEndFatalERKNSt7__cxx1119basic_ostringstreamIcSt11char_traitsIcESaIcEEE(ptr noundef nonnull align 8 dereferenceable(56) %0, ptr noundef nonnull align 8 dereferenceable(112) %18) #34
  unreachable

19:                                               ; preds = %10
  %20 = getelementptr inbounds nuw i8, ptr %2, i64 36
  %21 = load i8, ptr %20, align 4, !tbaa !40
  %.not18 = icmp eq i8 %21, 1
  br i1 %.not18, label %28, label %22, !prof !41

22:                                               ; preds = %19
  %23 = tail call noundef nonnull align 8 dereferenceable(112) ptr @_ZN7V3Error19v3errorPrepFileLineB5cxx11E11V3ErrorCodePKci(i8 4, ptr noundef nonnull @.str.15, i32 noundef 1964)
  %24 = tail call noundef nonnull align 8 dereferenceable(112) ptr @_ZN7V3Error10v3errorStrB5cxx11Ev()
  %25 = tail call noundef nonnull align 8 dereferenceable(8) ptr @_ZStlsISt11char_traitsIcEERSt13basic_ostreamIcT_ES5_PKc(ptr noundef nonnull align 8 dereferenceable(8) %24, ptr noundef nonnull @.str.52)
  %26 = tail call noundef nonnull align 8 dereferenceable(8) ptr @_ZlsRSoRK8V3Number(ptr noundef nonnull align 8 dereferenceable(8) %25, ptr noundef nonnull align 8 dereferenceable(56) %2)
  %27 = tail call noundef nonnull align 8 dereferenceable(8) ptr @_ZStlsISt11char_traitsIcEERSt13basic_ostreamIcT_ES5_c(ptr noundef nonnull align 8 dereferenceable(8) %26, i8 noundef signext 34)
  tail call void @_ZNK8V3Number15v3errorEndFatalERKNSt7__cxx1119basic_ostringstreamIcSt11char_traitsIcESaIcEEE(ptr noundef nonnull align 8 dereferenceable(56) %0, ptr noundef nonnull align 8 dereferenceable(112) %27) #34
  unreachable

28:                                               ; preds = %19
  %29 = tail call noundef zeroext i1 @_ZNK8V3Number11isFourStateEv(ptr noundef nonnull align 8 dereferenceable(56) %1)
  br i1 %29, label %32, label %30

30:                                               ; preds = %28
  %31 = tail call noundef zeroext i1 @_ZNK8V3Number11isFourStateEv(ptr noundef nonnull align 8 dereferenceable(56) %2)
  br i1 %31, label %32, label %34

32:                                               ; preds = %30, %28
  %33 = tail call noundef nonnull align 8 dereferenceable(56) ptr @_ZN8V3Number11setAllBitsXEv(ptr noundef nonnull align 8 dereferenceable(56) %0)
  br label %49

34:                                               ; preds = %30
  %35 = tail call noundef zeroext i1 @_ZNK8V3Number8isEqZeroEv(ptr noundef nonnull align 8 dereferenceable(56) %2)
  br i1 %35, label %36, label %38

36:                                               ; preds = %34
  %37 = tail call noundef nonnull align 8 dereferenceable(56) ptr @_ZN8V3Number18setAllBitsXRemovedEv(ptr noundef nonnull align 8 dereferenceable(56) %0)
  br label %49

38:                                               ; preds = %34
  %39 = getelementptr inbounds nuw i8, ptr %1, i64 32
  %40 = load i32, ptr %39, align 8, !tbaa !39
  %41 = icmp slt i32 %40, 65
  br i1 %41, label %42, label %47

42:                                               ; preds = %38
  %43 = tail call noundef i64 @_ZNK8V3Number7toUQuadEv(ptr noundef nonnull align 8 dereferenceable(56) %1)
  %44 = tail call noundef i64 @_ZNK8V3Number7toUQuadEv(ptr noundef nonnull align 8 dereferenceable(56) %2)
  %45 = udiv i64 %43, %44
  %46 = tail call noundef nonnull align 8 dereferenceable(56) ptr @_ZN8V3Number7setQuadEm(ptr noundef nonnull align 8 dereferenceable(56) %0, i64 noundef %45)
  br label %49

47:                                               ; preds = %38
  %48 = tail call noundef nonnull align 8 dereferenceable(56) ptr @_ZN8V3Number12opModDivGutsERKS_S1_b(ptr noundef nonnull align 8 dereferenceable(56) %0, ptr noundef nonnull align 8 dereferenceable(56) %1, ptr noundef nonnull align 8 dereferenceable(56) %2, i1 noundef zeroext false)
  br label %49

49:                                               ; preds = %47, %42, %36, %32
  ret ptr %0
}